target datalayout = "e-m:e-p270:32:32-p271:32:32-p272:64:64-i64:64-i128:128-f80:128-n8:16:32:64-S128"
target triple = "x86_64-pc-linux-gnu"

%"struct.cvc5::internal::theory::arith::linear::PrimitiveVec" = type { i32, ptr, ptr }

; Function Attrs: mustprogress uwtable
define hidden void @_ZN4cvc58internal6theory5arith6linear12PrimitiveVec5setupEi(ptr noundef nonnull align 8 dereferenceable(24) %0, i32 noundef %1) #5 align 2 {
  %3 = alloca ptr, align 8
  %4 = alloca i32, align 4
  store ptr %0, ptr %3, align 8, !tbaa !44
  store i32 %1, ptr %4, align 4, !tbaa !12
  %5 = load ptr, ptr %3, align 8
  %6 = load i32, ptr %4, align 4, !tbaa !12
  %7 = getelementptr inbounds nuw %"struct.cvc5::internal::theory::arith::linear::PrimitiveVec", ptr %5, i32 0, i32 0
  store i32 %6, ptr %7, align 8, !tbaa !46
  %8 = getelementptr inbounds nuw %"struct.cvc5::internal::theory::arith::linear::PrimitiveVec", ptr %5, i32 0, i32 0
  %9 = load i32, ptr %8, align 8, !tbaa !46
  %10 = add nsw i32 1, %9
  %11 = sext i32 %10 to i64
  %12 = call { i64, i1 } @llvm.umul.with.overflow.i64(i64 %11, i64 4)
  %13 = extractvalue { i64, i1 } %12, 1
  %14 = extractvalue { i64, i1 } %12, 0
  %15 = select i1 %13, i64 -1, i64 %14
  %16 = call noalias noundef nonnull ptr @_Znam(i64 noundef %15) #22
  %17 = getelementptr inbounds nuw %"struct.cvc5::internal::theory::arith::linear::PrimitiveVec", ptr %5, i32 0, i32 1
  store ptr %16, ptr %17, align 8, !tbaa !49
  %18 = getelementptr inbounds nuw %"struct.cvc5::internal::theory::arith::linear::PrimitiveVec", ptr %5, i32 0, i32 0
  %19 = load i32, ptr %18, align 8, !tbaa !46
  %20 = add nsw i32 1, %19
  %21 = sext i32 %20 to i64
  %22 = call { i64, i1 } @llvm.umul.with.overflow.i64(i64 %21, i64 8)
  %23 = extractvalue { i64, i1 } %22, 1
  %24 = extractvalue { i64, i1 } %22, 0
  %25 = select i1 %23, i64 -1, i64 %24
  %26 = call noalias noundef nonnull ptr @_Znam(i64 noundef %25) #22
  %27 = getelementptr inbounds nuw %"struct.cvc5::internal::theory::arith::linear::PrimitiveVec", ptr %5, i32 0, i32 2
  store ptr %26, ptr %27, align 8, !tbaa !50
  ret void
}