; Function Attrs: mustprogress uwtable
define hidden void @_ZN4cvc58internal6theory5arith6linear12PrimitiveVec5setupEi(ptr noundef nonnull writeonly align 8 captures(none) dereferenceable(24) initializes((0, 4), (8, 24)) %0, i32 noundef %1) local_unnamed_addr #13 align 2 {
  store i32 %1, ptr %0, align 8, !tbaa !36
  %3 = add nsw i32 %1, 1
  %4 = sext i32 %3 to i64
  %5 = icmp slt i32 %1, -1
  %6 = shl nsw i64 %4, 2
  %7 = select i1 %5, i64 -1, i64 %6
  %8 = tail call noalias noundef nonnull ptr @_Znam(i64 noundef %7) #29
  %9 = getelementptr inbounds nuw i8, ptr %0, i64 8
  store ptr %8, ptr %9, align 8, !tbaa !39
  %10 = shl nsw i64 %4, 3
  %11 = select i1 %5, i64 -1, i64 %10
  %12 = tail call noalias noundef nonnull ptr @_Znam(i64 noundef %11) #29
  %13 = getelementptr inbounds nuw i8, ptr %0, i64 16
  store ptr %12, ptr %13, align 8, !tbaa !40
  ret void
}